target datalayout = "e-m:e-p270:32:32-p271:32:32-p272:64:64-i64:64-i128:128-f80:128-n8:16:32:64-S128"
target triple = "x86_64-pc-linux-gnu"

%struct.png_row_info_struct = type { i32, i64, i8, i8, i8, i8 }

; Function Attrs: nounwind uwtable
define internal void @store4(ptr noundef %0, <2 x i64> noundef %1) #0 {
  %3 = alloca <2 x i64>, align 16
  %4 = alloca <4 x i32>, align 16
  %5 = alloca ptr, align 8
  %6 = alloca <2 x i64>, align 16
  %7 = alloca i32, align 4
  store ptr %0, ptr %5, align 8
  store <2 x i64> %1, ptr %6, align 16
  %8 = load <2 x i64>, ptr %6, align 16
  store <2 x i64> %8, ptr %3, align 16
  %9 = load <2 x i64>, ptr %3, align 16
  %10 = bitcast <2 x i64> %9 to <4 x i32>
  store <4 x i32> %10, ptr %4, align 16
  %11 = load <4 x i32>, ptr %4, align 16
  %12 = extractelement <4 x i32> %11, i32 0
  store i32 %12, ptr %7, align 4
  %13 = load ptr, ptr %5, align 8
  call void @llvm.memcpy.p0.p0.i64(ptr align 1 %13, ptr align 4 %7, i64 4, i1 false)
  ret void
}

; Function Attrs: nounwind uwtable
define internal <2 x i64> @load4(ptr noundef %0) #0 {
  %2 = alloca i32, align 4
  %3 = alloca <4 x i32>, align 16
  %4 = alloca ptr, align 8
  %5 = alloca i32, align 4
  store ptr %0, ptr %4, align 8
  %6 = load ptr, ptr %4, align 8
  call void @llvm.memcpy.p0.p0.i64(ptr align 4 %5, ptr align 1 %6, i64 4, i1 false)
  %7 = load i32, ptr %5, align 4
  store i32 %7, ptr %2, align 4
  %8 = load i32, ptr %2, align 4
  %9 = insertelement <4 x i32> poison, i32 %8, i32 0
  %10 = insertelement <4 x i32> %9, i32 0, i32 1
  %11 = insertelement <4 x i32> %10, i32 0, i32 2
  %12 = insertelement <4 x i32> %11, i32 0, i32 3
  store <4 x i32> %12, ptr %3, align 16
  %13 = load <4 x i32>, ptr %3, align 16
  %14 = bitcast <4 x i32> %13 to <2 x i64>
  ret <2 x i64> %14
}

; Function Attrs: nounwind uwtable
define void @png_read_filter_row_sub4_sse2(ptr noundef %0, ptr noundef %1, ptr noundef %2) #0 {
  %4 = alloca <2 x i64>, align 16
  %5 = alloca <2 x i64>, align 16
  %6 = alloca <2 x i64>, align 16
  %7 = alloca ptr, align 8
  %8 = alloca ptr, align 8
  %9 = alloca ptr, align 8
  %10 = alloca i64, align 8
  %11 = alloca <2 x i64>, align 16
  %12 = alloca <2 x i64>, align 16
  store ptr %0, ptr %7, align 8
  store ptr %1, ptr %8, align 8
  store ptr %2, ptr %9, align 8
  store <2 x i64> zeroinitializer, ptr %6, align 16
  %13 = load <2 x i64>, ptr %6, align 16
  store <2 x i64> %13, ptr %12, align 16
  %14 = load ptr, ptr %7, align 8
  %15 = getelementptr inbounds %struct.png_row_info_struct, ptr %14, i32 0, i32 1
  %16 = load i64, ptr %15, align 8
  %17 = add i64 %16, 4
  store i64 %17, ptr %10, align 8
  br label %18

18:                                               ; preds = %21, %3
  %19 = load i64, ptr %10, align 8
  %20 = icmp ugt i64 %19, 4
  br i1 %20, label %21, label %39

21:                                               ; preds = %18
  %22 = load <2 x i64>, ptr %12, align 16
  store <2 x i64> %22, ptr %11, align 16
  %23 = load ptr, ptr %8, align 8
  %24 = call <2 x i64> @load4(ptr noundef %23)
  store <2 x i64> %24, ptr %12, align 16
  %25 = load <2 x i64>, ptr %12, align 16
  %26 = load <2 x i64>, ptr %11, align 16
  store <2 x i64> %25, ptr %4, align 16
  store <2 x i64> %26, ptr %5, align 16
  %27 = load <2 x i64>, ptr %4, align 16
  %28 = bitcast <2 x i64> %27 to <16 x i8>
  %29 = load <2 x i64>, ptr %5, align 16
  %30 = bitcast <2 x i64> %29 to <16 x i8>
  %31 = add <16 x i8> %28, %30
  %32 = bitcast <16 x i8> %31 to <2 x i64>
  store <2 x i64> %32, ptr %12, align 16
  %33 = load ptr, ptr %8, align 8
  %34 = load <2 x i64>, ptr %12, align 16
  call void @store4(ptr noundef %33, <2 x i64> noundef %34)
  %35 = load ptr, ptr %8, align 8
  %36 = getelementptr inbounds i8, ptr %35, i64 4
  store ptr %36, ptr %8, align 8
  %37 = load i64, ptr %10, align 8
  %38 = sub i64 %37, 4
  store i64 %38, ptr %10, align 8
  br label %18, !llvm.loop !6

39:                                               ; preds = %18
  ret void
}