; Function Attrs: nofree norecurse nosync nounwind memory(argmem: readwrite) uwtable
define void @png_read_filter_row_sub4_sse2(ptr noundef readonly captures(none) %0, ptr noundef captures(none) %1, ptr noundef readnone captures(none) %2) local_unnamed_addr #0 {
  %4 = getelementptr inbounds nuw i8, ptr %0, i64 8
  %5 = load i64, ptr %4, align 8
  %6 = add i64 %5, 4
  %7 = icmp ugt i64 %6, 4
  br i1 %7, label %.lr.ph, label %._crit_edge

.lr.ph:                                           ; preds = %3, %.lr.ph
  %8 = phi <16 x i8> [ %11, %.lr.ph ], [ zeroinitializer, %3 ]
  %.01215 = phi ptr [ %14, %.lr.ph ], [ %1, %3 ]
  %.01314 = phi i64 [ %15, %.lr.ph ], [ %6, %3 ]
  %.012.val = load i32, ptr %.01215, align 1
  %9 = insertelement <4 x i32> <i32 poison, i32 0, i32 0, i32 0>, i32 %.012.val, i64 0
  %10 = bitcast <4 x i32> %9 to <16 x i8>
  %11 = add <16 x i8> %8, %10
  %12 = bitcast <16 x i8> %11 to <4 x i32>
  %13 = extractelement <4 x i32> %12, i64 0
  store i32 %13, ptr %.01215, align 1
  %14 = getelementptr inbounds nuw i8, ptr %.01215, i64 4
  %15 = add i64 %.01314, -4
  %16 = icmp ugt i64 %15, 4
  br i1 %16, label %.lr.ph, label %._crit_edge, !llvm.loop !6

._crit_edge:                                      ; preds = %.lr.ph, %3
  ret void
}